Certificate:
    Data:
        Version: 1 (0x0)
        Serial Number: 4096 (0x1000)
        Signature Algorithm: sha256WithRSAEncryption
        Issuer: CN=My-Local-Root-CA, O=Zero-Trust-Lab
        Validity
            Not Before: Jun 20 20:40:43 2026 GMT
            Not After : Jun 20 20:40:43 2027 GMT
        Subject: O=Client-Group, CN=revoked-client
        Subject Public Key Info:
            Public Key Algorithm: rsaEncryption
                Public-Key: (2048 bit)
                Modulus:
                    00:b0:bb:d3:e4:52:f1:7f:4d:fe:11:ff:59:73:bb:
                    85:b1:80:15:62:13:b8:bc:3f:0e:6b:0c:85:df:82:
                    be:73:9e:e3:39:7e:9c:ac:7a:3d:36:94:38:72:17:
                    f8:1d:ab:c7:e2:68:24:d2:d9:ee:6c:dd:a3:e0:a7:
                    82:22:e8:06:34:b6:df:a5:d8:64:44:28:b3:86:10:
                    29:8a:d1:0e:e5:e0:18:90:73:14:52:66:d3:71:b1:
                    f1:6b:77:8d:c6:dc:d3:4d:b2:05:79:45:e7:b5:81:
                    f0:4a:fd:32:5b:a1:73:4f:5e:91:aa:cf:2d:74:2c:
                    94:24:ef:a6:bd:18:4c:ec:51:bd:d6:e8:0c:29:a0:
                    6e:24:79:00:7c:71:b2:fe:62:01:0e:74:b4:9f:d1:
                    c3:db:d0:cc:0c:a7:cc:c8:1c:1a:5e:0f:08:85:6f:
                    3a:04:fc:70:b5:e6:76:81:39:4d:5d:3d:8d:88:7d:
                    db:ca:2d:78:25:00:c4:00:50:71:66:03:7d:75:13:
                    8b:8c:b7:c7:3c:9d:9c:5e:05:c3:4d:dd:68:ea:23:
                    b3:7f:b8:bb:d1:67:51:86:05:87:78:6c:78:43:28:
                    1f:d8:94:f5:cf:de:a3:ba:bc:e9:3c:fd:d9:98:aa:
                    7e:38:dc:cf:a7:dd:7b:33:3f:03:7d:62:70:d6:a3:
                    ea:4b
                Exponent: 65537 (0x10001)
    Signature Algorithm: sha256WithRSAEncryption
    Signature Value:
        8f:53:20:4b:42:4a:d8:33:3b:92:42:24:31:5b:7e:ab:31:8c:
        fc:17:b7:89:e8:e9:59:08:54:95:45:23:ce:24:ab:d8:d3:7e:
        6e:d4:c3:72:e4:91:72:ff:fb:db:45:66:ab:3d:d2:1a:ab:b9:
        c0:fb:67:b0:31:ee:a9:6a:02:44:45:61:a1:66:3e:ee:2b:57:
        9b:08:68:8c:1f:f4:d3:7b:b1:fa:d6:bb:3b:ec:49:a4:75:94:
        e8:20:92:63:5c:74:e5:13:27:fe:8b:02:20:1f:5e:07:a3:29:
        ba:95:c1:f4:fa:8a:3f:52:6d:cd:ce:c9:73:e3:0d:34:01:5b:
        46:e8:fc:02:42:9f:56:2e:89:61:c0:35:69:ef:b1:53:3f:8d:
        4f:8b:bb:c9:e8:16:e9:c9:fa:fc:4a:82:79:e4:65:76:30:47:
        f2:b5:46:15:be:b6:d9:9c:96:7a:c9:34:ef:b1:86:78:ae:a6:
        bc:73:81:e9:c6:06:1a:24:f3:f2:c5:07:b1:70:48:ab:49:93:
        f6:9f:0c:f2:46:89:c8:2f:26:78:8f:14:3f:9d:73:0b:74:42:
        dc:55:68:cf:a5:ff:e0:70:20:8b:26:d4:37:5e:4c:f9:23:5c:
        3a:0d:0a:0a:16:d9:47:1f:a5:9f:b7:21:19:08:be:cc:af:1c:
        ba:72:27:a2:6c:83:a2:4a:79:e8:ae:1c:23:04:42:1e:d0:ac:
        af:42:61:eb:0c:83:b8:02:d3:f4:ed:4b:05:f3:7e:29:ac:43:
        b6:8b:ad:f0:dc:1b:4d:82:6d:93:9f:8b:04:92:e0:26:09:f3:
        06:61:93:2c:f6:73:ca:21:4e:de:21:60:b7:41:9d:77:77:3c:
        42:da:b1:f1:90:26:d1:5b:9d:dc:10:c3:82:57:a7:b9:aa:68:
        f3:17:41:f1:ff:13:76:42:bf:ef:03:ac:90:69:b2:f7:81:9d:
        5e:64:f2:47:d4:b7:26:08:44:be:3b:a1:ee:1d:40:02:79:1f:
        7a:93:8c:5c:8f:e8:f8:2c:8d:95:33:9e:b3:c7:7e:c9:06:f2:
        0d:6e:5c:14:a1:8a:c6:3f:e1:bc:4d:5b:92:19:60:0c:bc:85:
        60:ed:40:68:e7:ff:1b:7f:a2:fc:3c:a5:9e:ac:17:0e:37:f5:
        09:6b:3c:99:b6:d3:f0:bb:c6:4e:ce:53:52:f8:e7:b4:6e:e9:
        77:f6:db:d1:b4:0c:dd:09:cd:e7:ef:31:13:04:35:83:a0:d8:
        a6:2a:ca:44:5d:2e:3e:cf:4c:e6:97:ea:86:8f:56:c0:1c:c0:
        38:99:09:51:d7:41:6a:3f:80:27:5c:1c:7d:d5:1d:3f:6d:9a:
        55:ed:a9:45:5d:69:e7:77
-----BEGIN CERTIFICATE-----
MIID2TCCAcECAhAAMA0GCSqGSIb3DQEBCwUAMDQxGTAXBgNVBAMMEE15LUxvY2Fs
LVJvb3QtQ0ExFzAVBgNVBAoMDlplcm8tVHJ1c3QtTGFiMB4XDTI2MDYyMDIwNDA0
M1oXDTI3MDYyMDIwNDA0M1owMDEVMBMGA1UECgwMQ2xpZW50LUdyb3VwMRcwFQYD
VQQDDA5yZXZva2VkLWNsaWVudDCCASIwDQYJKoZIhvcNAQEBBQADggEPADCCAQoC
ggEBALC70+RS8X9N/hH/WXO7hbGAFWITuLw/DmsMhd+CvnOe4zl+nKx6PTaUOHIX
+B2rx+JoJNLZ7mzdo+CngiLoBjS236XYZEQos4YQKYrRDuXgGJBzFFJm03Gx8Wt3
jcbc002yBXlF57WB8Er9Mluhc09ekarPLXQslCTvpr0YTOxRvdboDCmgbiR5AHxx
sv5iAQ50tJ/Rw9vQzAynzMgcGl4PCIVvOgT8cLXmdoE5TV09jYh928oteCUAxABQ
cWYDfXUTi4y3xzydnF4Fw03daOojs3+4u9FnUYYFh3hseEMoH9iU9c/eo7q86Tz9
2Ziqfjjcz6fdezM/A31icNaj6ksCAwEAATANBgkqhkiG9w0BAQsFAAOCAgEAj1Mg
S0JK2DM7kkIkMVt+qzGM/Be3iejpWQhUlUUjziSr2NN+btTDcuSRcv/720Vmqz3S
Gqu5wPtnsDHuqWoCREVhoWY+7itXmwhojB/003ux+ta7O+xJpHWU6CCSY1x05RMn
/osCIB9eB6MpupXB9PqKP1Jtzc7Jc+MNNAFbRuj8AkKfVi6JYcA1ae+xUz+NT4u7
yegW6cn6/EqCeeRldjBH8rVGFb622ZyWesk077GGeK6mvHOB6cYGGiTz8sUHsXBI
q0mT9p8M8kaJyC8meI8UP51zC3RC3FVoz6X/4HAgiybUN15M+SNcOg0KChbZRx+l
n7chGQi+zK8cunInomyDokp56K4cIwRCHtCsr0Jh6wyDuALT9O1LBfN+KaxDtout
8NwbTYJtk5+LBJLgJgnzBmGTLPZzyiFO3iFgt0Gdd3c8Qtqx8ZAm0Vud3BDDglen
uapo8xdB8f8TdkK/7wOskGmy94GdXmTyR9S3JghEvjuh7h1AAnkfepOMXI/o+CyN
lTOes8d+yQbyDW5cFKGKxj/hvE1bkhlgDLyFYO1AaOf/G3+i/DylnqwXDjf1CWs8
mbbT8LvGTs5TUvjntG7pd/bb0bQM3QnN5+8xEwQ1g6DYpirKRF0uPs9M5pfqho9W
wBzAOJkJUddBaj+AJ1wcfdUdP22aVe2pRV1p53c=
-----END CERTIFICATE-----
